; Function Attrs: nounwind uwtable
define ptr @get_function_or_method_name(ptr nocapture noundef readonly %0) local_unnamed_addr #0 {
  %2 = getelementptr inbounds i8, ptr %0, i64 16
  %3 = load ptr, ptr %2, align 8
  %.not = icmp eq ptr %3, null
  %.phi.trans.insert = getelementptr inbounds i8, ptr %0, i64 8
  %.pre = load ptr, ptr %.phi.trans.insert, align 8
  %.not69 = icmp eq ptr %.pre, null
  br i1 %.not, label %9, label %4

4:                                                ; preds = %1
  br i1 %.not69, label %.thread, label %5

5:                                                ; preds = %4
  %6 = getelementptr inbounds i8, ptr %3, i64 8
  %7 = load ptr, ptr %6, align 8
  %8 = tail call ptr @zend_create_member_string(ptr noundef %7, ptr noundef nonnull %.pre) #24
  br label %23

9:                                                ; preds = %1
  br i1 %.not69, label %.thread, label %10

10:                                               ; preds = %9
  %11 = getelementptr inbounds i8, ptr %.pre, i64 4
  %12 = load i32, ptr %11, align 4
  %13 = and i32 %12, 64
  %.not70 = icmp eq i32 %13, 0
  br i1 %.not70, label %14, label %23

14:                                               ; preds = %10
  %15 = load i32, ptr %.pre, align 4
  %16 = add i32 %15, 1
  store i32 %16, ptr %.pre, align 4
  br label %23

.thread:                                          ; preds = %4, %9
  %17 = tail call noalias ptr @_emalloc_32() #24
  store i32 1, ptr %17, align 4
  %18 = getelementptr inbounds i8, ptr %17, i64 4
  store i32 22, ptr %18, align 4
  %19 = getelementptr inbounds i8, ptr %17, i64 8
  store i64 0, ptr %19, align 8
  %20 = getelementptr inbounds i8, ptr %17, i64 16
  store i64 4, ptr %20, align 8
  %21 = getelementptr inbounds i8, ptr %17, i64 24
  store i32 1852399981, ptr %21, align 8
  %22 = getelementptr inbounds i8, ptr %17, i64 28
  store i8 0, ptr %22, align 1
  br label %23

23:                                               ; preds = %.thread, %14, %10, %5
  %.0 = phi ptr [ %8, %5 ], [ %17, %.thread ], [ %.pre, %14 ], [ %.pre, %10 ]
  ret ptr %.0
}